	.file	"code.c"
	.section	.rodata
.LC0:
	.string	"Factorial of n=%ld\n"
	.text
	.globl	factorial
	.type	factorial, @function
factorial:
.LFB0:
	.cfi_startproc
	pushq	%rbp
	.cfi_def_cfa_offset 16
	.cfi_offset 6, -16
	movq	%rsp, %rbp
	.cfi_def_cfa_register 6
	subq	$32, %rsp
	movl	%edi, -20(%rbp)
	movq	$1, -8(%rbp)
	movl	$1, -12(%rbp)
	jmp	.L2
.L3:
	movl	-12(%rbp), %eax
	cltq
	movq	-8(%rbp), %rdx
	imulq	%rdx, %rax
	movq	%rax, -8(%rbp)
	addl	$1, -12(%rbp)
.L2:
	movl	-12(%rbp), %eax
	cmpl	-20(%rbp), %eax
	jle	.L3
	movq	-8(%rbp), %rax
	movq	%rax, %rsi
	movl	$.LC0, %edi
	movl	$0, %eax
	call	printf
	nop
	leave
	.cfi_def_cfa 7, 8
	ret
	.cfi_endproc
.LFE0:
	.size	factorial, .-factorial
	.section	.rodata
.LC1:
	.string	"Enter value of n"
.LC2:
	.string	"%d"
	.text
	.globl	main
	.type	main, @function
main:
.LFB1:
	.cfi_startproc
	pushq	%rbp
	.cfi_def_cfa_offset 16
	.cfi_offset 6, -16
	movq	%rsp, %rbp
	.cfi_def_cfa_register 6
	subq	$16, %rsp
	movq	%fs:40, %rax
	movq	%rax, -8(%rbp)
	xorl	%eax, %eax
	movl	$.LC1, %edi
	call	puts
	leaq	-12(%rbp), %rax
	movq	%rax, %rsi
	movl	$.LC2, %edi
	movl	$0, %eax
	call	__isoc99_scanf
	movl	-12(%rbp), %eax
	movl	%eax, %edi
	call	factorial
	movl	$0, %eax
	movq	-8(%rbp), %rdx
	xorq	%fs:40, %rdx
	je	.L6
	call	__stack_chk_fail
.L6:
	leave
	.cfi_def_cfa 7, 8
	ret
	.cfi_endproc
.LFE1:
	.size	main, .-main
	.ident	"GCC: (Ubuntu 5.4.0-6ubuntu1~16.04.9) 5.4.0 20160609"
	.section	.note.GNU-stack,"",@progbits
