
code.o:     file format elf64-x86-64


Disassembly of section .text:

0000000000000000 <main>:
   0:	55                   	push   rbp
   1:	48 89 e5             	mov    rbp,rsp
   4:	48 81 ec 00 04 00 00 	sub    rsp,0x400
   b:	64 48 8b 04 25 28 00 	mov    rax,QWORD PTR fs:0x28
  12:	00 00 
  14:	48 89 45 f8          	mov    QWORD PTR [rbp-0x8],rax
  18:	31 c0                	xor    eax,eax
  1a:	c7 85 08 fc ff ff 00 	mov    DWORD PTR [rbp-0x3f8],0x0
  21:	00 00 00 
  24:	bf 00 00 00 00       	mov    edi,0x0
  29:	e8 00 00 00 00       	call   2e <main+0x2e>
  2e:	48 8d 85 10 fc ff ff 	lea    rax,[rbp-0x3f0]
  35:	48 89 c6             	mov    rsi,rax
  38:	bf 00 00 00 00       	mov    edi,0x0
  3d:	b8 00 00 00 00       	mov    eax,0x0
  42:	e8 00 00 00 00       	call   47 <main+0x47>
  47:	48 8d 85 10 fc ff ff 	lea    rax,[rbp-0x3f0]
  4e:	48 89 c7             	mov    rdi,rax
  51:	e8 00 00 00 00       	call   56 <main+0x56>
  56:	89 85 0c fc ff ff    	mov    DWORD PTR [rbp-0x3f4],eax
  5c:	c7 85 04 fc ff ff 00 	mov    DWORD PTR [rbp-0x3fc],0x0
  63:	00 00 00 
  66:	eb 3b                	jmp    a3 <main+0xa3>
  68:	8b 85 04 fc ff ff    	mov    eax,DWORD PTR [rbp-0x3fc]
  6e:	48 98                	cdqe   
  70:	0f b6 94 05 10 fc ff 	movzx  edx,BYTE PTR [rbp+rax*1-0x3f0]
  77:	ff 
  78:	8b 85 0c fc ff ff    	mov    eax,DWORD PTR [rbp-0x3f4]
  7e:	2b 85 04 fc ff ff    	sub    eax,DWORD PTR [rbp-0x3fc]
  84:	83 e8 01             	sub    eax,0x1
  87:	48 98                	cdqe   
  89:	0f b6 84 05 10 fc ff 	movzx  eax,BYTE PTR [rbp+rax*1-0x3f0]
  90:	ff 
  91:	38 c2                	cmp    dl,al
  93:	75 07                	jne    9c <main+0x9c>
  95:	83 85 08 fc ff ff 01 	add    DWORD PTR [rbp-0x3f8],0x1
  9c:	83 85 04 fc ff ff 01 	add    DWORD PTR [rbp-0x3fc],0x1
  a3:	8b 85 04 fc ff ff    	mov    eax,DWORD PTR [rbp-0x3fc]
  a9:	3b 85 0c fc ff ff    	cmp    eax,DWORD PTR [rbp-0x3f4]
  af:	7c b7                	jl     68 <main+0x68>
  b1:	8b 85 08 fc ff ff    	mov    eax,DWORD PTR [rbp-0x3f8]
  b7:	3b 85 0c fc ff ff    	cmp    eax,DWORD PTR [rbp-0x3f4]
  bd:	75 0c                	jne    cb <main+0xcb>
  bf:	bf 00 00 00 00       	mov    edi,0x0
  c4:	e8 00 00 00 00       	call   c9 <main+0xc9>
  c9:	eb 0a                	jmp    d5 <main+0xd5>
  cb:	bf 00 00 00 00       	mov    edi,0x0
  d0:	e8 00 00 00 00       	call   d5 <main+0xd5>
  d5:	b8 00 00 00 00       	mov    eax,0x0
  da:	48 8b 4d f8          	mov    rcx,QWORD PTR [rbp-0x8]
  de:	64 48 33 0c 25 28 00 	xor    rcx,QWORD PTR fs:0x28
  e5:	00 00 
  e7:	74 05                	je     ee <main+0xee>
  e9:	e8 00 00 00 00       	call   ee <main+0xee>
  ee:	c9                   	leave  
  ef:	c3                   	ret    
